target datalayout = "e-m:e-p270:32:32-p271:32:32-p272:64:64-i64:64-i128:128-f80:128-n8:16:32:64-S128"
target triple = "x86_64-pc-linux-gnu"

%struct.QuadTree_struct = type { i32, double, i32, ptr, double, ptr, ptr, ptr, i32, ptr }

; Function Attrs: nounwind uwtable
define ptr @QuadTree_new_in_quadrant(i32 noundef %0, ptr noundef %1, double noundef %2, i32 noundef %3, i32 noundef %4) #0 {
  %6 = alloca i32, align 4
  %7 = alloca ptr, align 8
  %8 = alloca double, align 8
  %9 = alloca i32, align 4
  %10 = alloca i32, align 4
  %11 = alloca ptr, align 8
  %12 = alloca i32, align 4
  store i32 %0, ptr %6, align 4, !tbaa !12
  store ptr %1, ptr %7, align 8, !tbaa !10
  store double %2, ptr %8, align 8, !tbaa !8
  store i32 %3, ptr %9, align 4, !tbaa !12
  store i32 %4, ptr %10, align 4, !tbaa !12
  call void @llvm.lifetime.start.p0(i64 8, ptr %11) #11
  call void @llvm.lifetime.start.p0(i64 4, ptr %12) #11
  %13 = load i32, ptr %6, align 4, !tbaa !12
  %14 = load ptr, ptr %7, align 8, !tbaa !10
  %15 = load double, ptr %8, align 8, !tbaa !8
  %16 = load i32, ptr %9, align 4, !tbaa !12
  %17 = call ptr @QuadTree_new(i32 noundef %13, ptr noundef %14, double noundef %15, i32 noundef %16)
  store ptr %17, ptr %11, align 8, !tbaa !3
  %18 = load ptr, ptr %11, align 8, !tbaa !3
  %19 = getelementptr inbounds nuw %struct.QuadTree_struct, ptr %18, i32 0, i32 3
  %20 = load ptr, ptr %19, align 8, !tbaa !38
  store ptr %20, ptr %7, align 8, !tbaa !10
  store i32 0, ptr %12, align 4, !tbaa !12
  br label %21

21:                                               ; preds = %51, %5
  %22 = load i32, ptr %12, align 4, !tbaa !12
  %23 = load i32, ptr %6, align 4, !tbaa !12
  %24 = icmp slt i32 %22, %23
  br i1 %24, label %25, label %54

25:                                               ; preds = %21
  %26 = load i32, ptr %10, align 4, !tbaa !12
  %27 = srem i32 %26, 2
  %28 = icmp eq i32 %27, 0
  br i1 %28, label %29, label %37

29:                                               ; preds = %25
  %30 = load double, ptr %8, align 8, !tbaa !8
  %31 = load ptr, ptr %7, align 8, !tbaa !10
  %32 = load i32, ptr %12, align 4, !tbaa !12
  %33 = sext i32 %32 to i64
  %34 = getelementptr inbounds double, ptr %31, i64 %33
  %35 = load double, ptr %34, align 8, !tbaa !8
  %36 = fsub double %35, %30
  store double %36, ptr %34, align 8, !tbaa !8
  br label %45

37:                                               ; preds = %25
  %38 = load double, ptr %8, align 8, !tbaa !8
  %39 = load ptr, ptr %7, align 8, !tbaa !10
  %40 = load i32, ptr %12, align 4, !tbaa !12
  %41 = sext i32 %40 to i64
  %42 = getelementptr inbounds double, ptr %39, i64 %41
  %43 = load double, ptr %42, align 8, !tbaa !8
  %44 = fadd double %43, %38
  store double %44, ptr %42, align 8, !tbaa !8
  br label %45

45:                                               ; preds = %37, %29
  %46 = load i32, ptr %10, align 4, !tbaa !12
  %47 = load i32, ptr %10, align 4, !tbaa !12
  %48 = srem i32 %47, 2
  %49 = sub nsw i32 %46, %48
  %50 = sdiv i32 %49, 2
  store i32 %50, ptr %10, align 4, !tbaa !12
  br label %51

51:                                               ; preds = %45
  %52 = load i32, ptr %12, align 4, !tbaa !12
  %53 = add nsw i32 %52, 1
  store i32 %53, ptr %12, align 4, !tbaa !12
  br label %21, !llvm.loop !73

54:                                               ; preds = %21
  %55 = load ptr, ptr %11, align 8, !tbaa !3
  call void @llvm.lifetime.end.p0(i64 4, ptr %12) #11
  call void @llvm.lifetime.end.p0(i64 8, ptr %11) #11
  ret ptr %55
}