; Function Attrs: nofree nounwind uwtable
define noalias noundef ptr @QuadTree_new_in_quadrant(i32 noundef %0, ptr noundef readonly captures(none) %1, double noundef %2, i32 noundef %3, i32 noundef %4) local_unnamed_addr #1 {
  %6 = tail call ptr @QuadTree_new(i32 noundef %0, ptr noundef %1, double noundef %2, i32 noundef %3)
  %7 = getelementptr inbounds nuw i8, ptr %6, i64 24
  %8 = load ptr, ptr %7, align 8, !tbaa !27
  %9 = icmp sgt i32 %0, 0
  br i1 %9, label %.lr.ph.preheader, label %._crit_edge

.lr.ph.preheader:                                 ; preds = %5
  %wide.trip.count = zext nneg i32 %0 to i64
  %10 = fneg double %2
  br label %.lr.ph

.lr.ph:                                           ; preds = %.lr.ph.preheader, %.lr.ph
  %indvars.iv = phi i64 [ 0, %.lr.ph.preheader ], [ %indvars.iv.next, %.lr.ph ]
  %.01718 = phi i32 [ %4, %.lr.ph.preheader ], [ %15, %.lr.ph ]
  %11 = and i32 %.01718, 1
  %12 = icmp eq i32 %11, 0
  %13 = getelementptr inbounds nuw double, ptr %8, i64 %indvars.iv
  %14 = load double, ptr %13, align 8, !tbaa !13
  %.sink.p = select i1 %12, double %10, double %2
  %.sink = fadd double %14, %.sink.p
  store double %.sink, ptr %13, align 8, !tbaa !13
  %15 = sdiv i32 %.01718, 2
  %indvars.iv.next = add nuw nsw i64 %indvars.iv, 1
  %exitcond.not = icmp eq i64 %indvars.iv.next, %wide.trip.count
  br i1 %exitcond.not, label %._crit_edge, label %.lr.ph, !llvm.loop !62

._crit_edge:                                      ; preds = %.lr.ph, %5
  ret ptr %6
}